; Function Attrs: null_pointer_is_valid sspstrong uwtable
define internal void @ipv4_hash_table_resolved_to_list(ptr readnone captures(none) %0, ptr noundef %1, ptr noundef captures(none) %2) #3 {
  %4 = getelementptr inbounds nuw i8, ptr %1, i64 4
  %5 = load i8, ptr %4, align 4
  %6 = and i8 %5, 6
  %7 = icmp eq i8 %6, 6
  br i1 %7, label %8, label %11

8:                                                ; preds = %3
  %9 = load ptr, ptr %2, align 8
  %10 = tail call ptr @g_list_prepend(ptr noundef %9, ptr noundef %1)
  store ptr %10, ptr %2, align 8
  br label %11

11:                                               ; preds = %8, %3
  ret void
}